target datalayout = "e-m:e-p270:32:32-p271:32:32-p272:64:64-i64:64-i128:128-f80:128-n8:16:32:64-S128"
target triple = "x86_64-pc-linux-gnu"

@.str = private unnamed_addr constant [6 x i8] c"7.2.1\00", align 1
@.str.1 = private unnamed_addr constant [1 x i8] zeroinitializer, align 1

; Function Attrs: nounwind uwtable
define i32 @SUNDIALSGetVersion(ptr noundef %0, i32 noundef %1) #0 {
  %3 = alloca i32, align 4
  %4 = alloca ptr, align 8
  %5 = alloca i32, align 4
  store ptr %0, ptr %4, align 8, !tbaa !3
  store i32 %1, ptr %5, align 4, !tbaa !8
  %6 = load ptr, ptr %4, align 8, !tbaa !3
  %7 = icmp eq ptr %6, null
  br i1 %7, label %8, label %9

8:                                                ; preds = %2
  store i32 -9999, ptr %3, align 4
  br label %19

9:                                                ; preds = %2
  %10 = load i32, ptr %5, align 4, !tbaa !8
  %11 = sext i32 %10 to i64
  %12 = icmp uge i64 5, %11
  br i1 %12, label %13, label %14

13:                                               ; preds = %9
  store i32 -9997, ptr %3, align 4
  br label %19

14:                                               ; preds = %9
  %15 = load ptr, ptr %4, align 8, !tbaa !3
  %16 = load i32, ptr %5, align 4, !tbaa !8
  %17 = sext i32 %16 to i64
  %18 = call ptr @strncpy(ptr noundef %15, ptr noundef @.str, i64 noundef %17) #2
  store i32 0, ptr %3, align 4
  br label %19

19:                                               ; preds = %14, %13, %8
  %20 = load i32, ptr %3, align 4
  ret i32 %20
}

; Function Attrs: nounwind
declare ptr @strncpy(ptr noundef, ptr noundef, i64 noundef) #1

; Function Attrs: nounwind uwtable
define i32 @SUNDIALSGetVersionNumber(ptr noundef %0, ptr noundef %1, ptr noundef %2, ptr noundef %3, i32 noundef %4) #0 {
  %6 = alloca i32, align 4
  %7 = alloca ptr, align 8
  %8 = alloca ptr, align 8
  %9 = alloca ptr, align 8
  %10 = alloca ptr, align 8
  %11 = alloca i32, align 4
  store ptr %0, ptr %7, align 8, !tbaa !10
  store ptr %1, ptr %8, align 8, !tbaa !10
  store ptr %2, ptr %9, align 8, !tbaa !10
  store ptr %3, ptr %10, align 8, !tbaa !3
  store i32 %4, ptr %11, align 4, !tbaa !8
  %12 = load ptr, ptr %7, align 8, !tbaa !10
  %13 = icmp eq ptr %12, null
  br i1 %13, label %23, label %14

14:                                               ; preds = %5
  %15 = load ptr, ptr %8, align 8, !tbaa !10
  %16 = icmp eq ptr %15, null
  br i1 %16, label %23, label %17

17:                                               ; preds = %14
  %18 = load ptr, ptr %9, align 8, !tbaa !10
  %19 = icmp eq ptr %18, null
  br i1 %19, label %23, label %20

20:                                               ; preds = %17
  %21 = load ptr, ptr %10, align 8, !tbaa !3
  %22 = icmp eq ptr %21, null
  br i1 %22, label %23, label %24

23:                                               ; preds = %20, %17, %14, %5
  store i32 -9999, ptr %6, align 4
  br label %37

24:                                               ; preds = %20
  %25 = load i32, ptr %11, align 4, !tbaa !8
  %26 = sext i32 %25 to i64
  %27 = icmp uge i64 0, %26
  br i1 %27, label %28, label %29

28:                                               ; preds = %24
  store i32 -9997, ptr %6, align 4
  br label %37

29:                                               ; preds = %24
  %30 = load ptr, ptr %7, align 8, !tbaa !10
  store i32 7, ptr %30, align 4, !tbaa !8
  %31 = load ptr, ptr %8, align 8, !tbaa !10
  store i32 2, ptr %31, align 4, !tbaa !8
  %32 = load ptr, ptr %9, align 8, !tbaa !10
  store i32 1, ptr %32, align 4, !tbaa !8
  %33 = load ptr, ptr %10, align 8, !tbaa !3
  %34 = load i32, ptr %11, align 4, !tbaa !8
  %35 = sext i32 %34 to i64
  %36 = call ptr @strncpy(ptr noundef %33, ptr noundef @.str.1, i64 noundef %35) #2
  store i32 0, ptr %6, align 4
  br label %37

37:                                               ; preds = %29, %28, %23
  %38 = load i32, ptr %6, align 4
  ret i32 %38
}


!llvm.module.flags = !{!0, !1, !2}

!0 = !{i32 1, !"wchar_size", i32 4}
!1 = !{i32 8, !"PIC Level", i32 2}
!2 = !{i32 7, !"uwtable", i32 2}
!3 = !{!4, !4, i64 0}
!4 = !{!"p1 omnipotent char", !5, i64 0}
!5 = !{!"any pointer", !6, i64 0}
!6 = !{!"omnipotent char", !7, i64 0}
!7 = !{!"Simple C/C++ TBAA"}
!8 = !{!9, !9, i64 0}
!9 = !{!"int", !6, i64 0}
!10 = !{!11, !11, i64 0}
!11 = !{!"p1 int", !5, i64 0}
